; ModuleID = '27/66.c'
source_filename = "27/66.c"
target datalayout = "e-m:e-p270:32:32-p271:32:32-p272:64:64-i64:64-f80:128-n8:16:32:64-S128"
target triple = "x86_64-pc-linux-gnu"

@.str = private unnamed_addr constant [3 x i8] c"%d\00", align 1
@.str.1 = private unnamed_addr constant [3 x i8] c"%f\00", align 1
@.str.2 = private unnamed_addr constant [12 x i8] c"x1=x2=%.5f\0A\00", align 1
@.str.3 = private unnamed_addr constant [20 x i8] c"x1=0.00000;x2=%.5f\0A\00", align 1
@.str.4 = private unnamed_addr constant [17 x i8] c"x1=%.5f;x2=%.5f\0A\00", align 1
@.str.5 = private unnamed_addr constant [29 x i8] c"x1=%.5f+%.5fi;x2=%.5f-%.5fi\0A\00", align 1

; Function Attrs: noinline nounwind uwtable
define dso_local i32 @main() #0 {
  %1 = alloca i32, align 4
  %2 = alloca i32, align 4
  %3 = alloca i32, align 4
  %4 = alloca i32, align 4
  %5 = alloca [100 x float], align 16
  %6 = alloca [100 x float], align 16
  %7 = alloca [100 x float], align 16
  %8 = alloca [100 x float], align 16
  store i32 0, i32* %1, align 4
  %9 = call i32 (i8*, ...) @__isoc99_scanf(i8* getelementptr inbounds ([3 x i8], [3 x i8]* @.str, i64 0, i64 0), i32* %4)
  store i32 0, i32* %2, align 4
  br label %10

10:                                               ; preds = %27, %0
  %11 = load i32, i32* %2, align 4
  %12 = load i32, i32* %4, align 4
  %13 = icmp slt i32 %11, %12
  br i1 %13, label %14, label %30

14:                                               ; preds = %10
  %15 = load i32, i32* %2, align 4
  %16 = sext i32 %15 to i64
  %17 = getelementptr inbounds [100 x float], [100 x float]* %5, i64 0, i64 %16
  %18 = call i32 (i8*, ...) @__isoc99_scanf(i8* getelementptr inbounds ([3 x i8], [3 x i8]* @.str.1, i64 0, i64 0), float* %17)
  %19 = load i32, i32* %2, align 4
  %20 = sext i32 %19 to i64
  %21 = getelementptr inbounds [100 x float], [100 x float]* %6, i64 0, i64 %20
  %22 = call i32 (i8*, ...) @__isoc99_scanf(i8* getelementptr inbounds ([3 x i8], [3 x i8]* @.str.1, i64 0, i64 0), float* %21)
  %23 = load i32, i32* %2, align 4
  %24 = sext i32 %23 to i64
  %25 = getelementptr inbounds [100 x float], [100 x float]* %7, i64 0, i64 %24
  %26 = call i32 (i8*, ...) @__isoc99_scanf(i8* getelementptr inbounds ([3 x i8], [3 x i8]* @.str.1, i64 0, i64 0), float* %25)
  br label %27

27:                                               ; preds = %14
  %28 = load i32, i32* %2, align 4
  %29 = add nsw i32 %28, 1
  store i32 %29, i32* %2, align 4
  br label %10

30:                                               ; preds = %10
  store i32 0, i32* %2, align 4
  br label %31

31:                                               ; preds = %227, %30
  %32 = load i32, i32* %2, align 4
  %33 = load i32, i32* %4, align 4
  %34 = icmp slt i32 %32, %33
  br i1 %34, label %35, label %230

35:                                               ; preds = %31
  %36 = load i32, i32* %2, align 4
  %37 = sext i32 %36 to i64
  %38 = getelementptr inbounds [100 x float], [100 x float]* %6, i64 0, i64 %37
  %39 = load float, float* %38, align 4
  %40 = load i32, i32* %2, align 4
  %41 = sext i32 %40 to i64
  %42 = getelementptr inbounds [100 x float], [100 x float]* %6, i64 0, i64 %41
  %43 = load float, float* %42, align 4
  %44 = fmul float %39, %43
  %45 = load i32, i32* %2, align 4
  %46 = sext i32 %45 to i64
  %47 = getelementptr inbounds [100 x float], [100 x float]* %5, i64 0, i64 %46
  %48 = load float, float* %47, align 4
  %49 = fmul float 4.000000e+00, %48
  %50 = load i32, i32* %2, align 4
  %51 = sext i32 %50 to i64
  %52 = getelementptr inbounds [100 x float], [100 x float]* %7, i64 0, i64 %51
  %53 = load float, float* %52, align 4
  %54 = fmul float %49, %53
  %55 = fsub float %44, %54
  %56 = load i32, i32* %2, align 4
  %57 = sext i32 %56 to i64
  %58 = getelementptr inbounds [100 x float], [100 x float]* %8, i64 0, i64 %57
  store float %55, float* %58, align 4
  %59 = load i32, i32* %2, align 4
  %60 = sext i32 %59 to i64
  %61 = getelementptr inbounds [100 x float], [100 x float]* %8, i64 0, i64 %60
  %62 = load float, float* %61, align 4
  %63 = fcmp oeq float %62, 0.000000e+00
  br i1 %63, label %64, label %78

64:                                               ; preds = %35
  %65 = load i32, i32* %2, align 4
  %66 = sext i32 %65 to i64
  %67 = getelementptr inbounds [100 x float], [100 x float]* %6, i64 0, i64 %66
  %68 = load float, float* %67, align 4
  %69 = fneg float %68
  %70 = load i32, i32* %2, align 4
  %71 = sext i32 %70 to i64
  %72 = getelementptr inbounds [100 x float], [100 x float]* %5, i64 0, i64 %71
  %73 = load float, float* %72, align 4
  %74 = fmul float 2.000000e+00, %73
  %75 = fdiv float %69, %74
  %76 = fpext float %75 to double
  %77 = call i32 (i8*, ...) @printf(i8* getelementptr inbounds ([12 x i8], [12 x i8]* @.str.2, i64 0, i64 0), double %76)
  br label %78

78:                                               ; preds = %64, %35
  %79 = load i32, i32* %2, align 4
  %80 = sext i32 %79 to i64
  %81 = getelementptr inbounds [100 x float], [100 x float]* %8, i64 0, i64 %80
  %82 = load float, float* %81, align 4
  %83 = fcmp ogt float %82, 0.000000e+00
  br i1 %83, label %84, label %112

84:                                               ; preds = %78
  %85 = load i32, i32* %2, align 4
  %86 = sext i32 %85 to i64
  %87 = getelementptr inbounds [100 x float], [100 x float]* %7, i64 0, i64 %86
  %88 = load float, float* %87, align 4
  %89 = fcmp oeq float %88, 0.000000e+00
  br i1 %89, label %90, label %112

90:                                               ; preds = %84
  %91 = load i32, i32* %2, align 4
  %92 = sext i32 %91 to i64
  %93 = getelementptr inbounds [100 x float], [100 x float]* %6, i64 0, i64 %92
  %94 = load float, float* %93, align 4
  %95 = fneg float %94
  %96 = fpext float %95 to double
  %97 = load i32, i32* %2, align 4
  %98 = sext i32 %97 to i64
  %99 = getelementptr inbounds [100 x float], [100 x float]* %8, i64 0, i64 %98
  %100 = load float, float* %99, align 4
  %101 = fpext float %100 to double
  %102 = call double @sqrt(double %101) #3
  %103 = fsub double %96, %102
  %104 = load i32, i32* %2, align 4
  %105 = sext i32 %104 to i64
  %106 = getelementptr inbounds [100 x float], [100 x float]* %5, i64 0, i64 %105
  %107 = load float, float* %106, align 4
  %108 = fmul float 2.000000e+00, %107
  %109 = fpext float %108 to double
  %110 = fdiv double %103, %109
  %111 = call i32 (i8*, ...) @printf(i8* getelementptr inbounds ([20 x i8], [20 x i8]* @.str.3, i64 0, i64 0), double %110)
  br label %112

112:                                              ; preds = %90, %84, %78
  %113 = load i32, i32* %2, align 4
  %114 = sext i32 %113 to i64
  %115 = getelementptr inbounds [100 x float], [100 x float]* %8, i64 0, i64 %114
  %116 = load float, float* %115, align 4
  %117 = fcmp ogt float %116, 0.000000e+00
  br i1 %117, label %118, label %166

118:                                              ; preds = %112
  %119 = load i32, i32* %2, align 4
  %120 = sext i32 %119 to i64
  %121 = getelementptr inbounds [100 x float], [100 x float]* %7, i64 0, i64 %120
  %122 = load float, float* %121, align 4
  %123 = fcmp une float %122, 0.000000e+00
  br i1 %123, label %124, label %166

124:                                              ; preds = %118
  %125 = load i32, i32* %2, align 4
  %126 = sext i32 %125 to i64
  %127 = getelementptr inbounds [100 x float], [100 x float]* %6, i64 0, i64 %126
  %128 = load float, float* %127, align 4
  %129 = fneg float %128
  %130 = fpext float %129 to double
  %131 = load i32, i32* %2, align 4
  %132 = sext i32 %131 to i64
  %133 = getelementptr inbounds [100 x float], [100 x float]* %8, i64 0, i64 %132
  %134 = load float, float* %133, align 4
  %135 = fpext float %134 to double
  %136 = call double @sqrt(double %135) #3
  %137 = fadd double %130, %136
  %138 = load i32, i32* %2, align 4
  %139 = sext i32 %138 to i64
  %140 = getelementptr inbounds [100 x float], [100 x float]* %5, i64 0, i64 %139
  %141 = load float, float* %140, align 4
  %142 = fmul float 2.000000e+00, %141
  %143 = fpext float %142 to double
  %144 = fdiv double %137, %143
  %145 = load i32, i32* %2, align 4
  %146 = sext i32 %145 to i64
  %147 = getelementptr inbounds [100 x float], [100 x float]* %6, i64 0, i64 %146
  %148 = load float, float* %147, align 4
  %149 = fneg float %148
  %150 = fpext float %149 to double
  %151 = load i32, i32* %2, align 4
  %152 = sext i32 %151 to i64
  %153 = getelementptr inbounds [100 x float], [100 x float]* %8, i64 0, i64 %152
  %154 = load float, float* %153, align 4
  %155 = fpext float %154 to double
  %156 = call double @sqrt(double %155) #3
  %157 = fsub double %150, %156
  %158 = load i32, i32* %2, align 4
  %159 = sext i32 %158 to i64
  %160 = getelementptr inbounds [100 x float], [100 x float]* %5, i64 0, i64 %159
  %161 = load float, float* %160, align 4
  %162 = fmul float 2.000000e+00, %161
  %163 = fpext float %162 to double
  %164 = fdiv double %157, %163
  %165 = call i32 (i8*, ...) @printf(i8* getelementptr inbounds ([17 x i8], [17 x i8]* @.str.4, i64 0, i64 0), double %144, double %164)
  br label %166

166:                                              ; preds = %124, %118, %112
  %167 = load i32, i32* %2, align 4
  %168 = sext i32 %167 to i64
  %169 = getelementptr inbounds [100 x float], [100 x float]* %8, i64 0, i64 %168
  %170 = load float, float* %169, align 4
  %171 = fcmp olt float %170, 0.000000e+00
  br i1 %171, label %172, label %226

172:                                              ; preds = %166
  %173 = load i32, i32* %2, align 4
  %174 = sext i32 %173 to i64
  %175 = getelementptr inbounds [100 x float], [100 x float]* %6, i64 0, i64 %174
  %176 = load float, float* %175, align 4
  %177 = fneg float %176
  %178 = load i32, i32* %2, align 4
  %179 = sext i32 %178 to i64
  %180 = getelementptr inbounds [100 x float], [100 x float]* %5, i64 0, i64 %179
  %181 = load float, float* %180, align 4
  %182 = fmul float 2.000000e+00, %181
  %183 = fdiv float %177, %182
  %184 = fpext float %183 to double
  %185 = load i32, i32* %2, align 4
  %186 = sext i32 %185 to i64
  %187 = getelementptr inbounds [100 x float], [100 x float]* %8, i64 0, i64 %186
  %188 = load float, float* %187, align 4
  %189 = fneg float %188
  %190 = fpext float %189 to double
  %191 = call double @sqrt(double %190) #3
  %192 = load i32, i32* %2, align 4
  %193 = sext i32 %192 to i64
  %194 = getelementptr inbounds [100 x float], [100 x float]* %5, i64 0, i64 %193
  %195 = load float, float* %194, align 4
  %196 = fmul float 2.000000e+00, %195
  %197 = fpext float %196 to double
  %198 = fdiv double %191, %197
  %199 = load i32, i32* %2, align 4
  %200 = sext i32 %199 to i64
  %201 = getelementptr inbounds [100 x float], [100 x float]* %6, i64 0, i64 %200
  %202 = load float, float* %201, align 4
  %203 = fneg float %202
  %204 = load i32, i32* %2, align 4
  %205 = sext i32 %204 to i64
  %206 = getelementptr inbounds [100 x float], [100 x float]* %5, i64 0, i64 %205
  %207 = load float, float* %206, align 4
  %208 = fmul float 2.000000e+00, %207
  %209 = fdiv float %203, %208
  %210 = fpext float %209 to double
  %211 = load i32, i32* %2, align 4
  %212 = sext i32 %211 to i64
  %213 = getelementptr inbounds [100 x float], [100 x float]* %8, i64 0, i64 %212
  %214 = load float, float* %213, align 4
  %215 = fneg float %214
  %216 = fpext float %215 to double
  %217 = call double @sqrt(double %216) #3
  %218 = load i32, i32* %2, align 4
  %219 = sext i32 %218 to i64
  %220 = getelementptr inbounds [100 x float], [100 x float]* %5, i64 0, i64 %219
  %221 = load float, float* %220, align 4
  %222 = fmul float 2.000000e+00, %221
  %223 = fpext float %222 to double
  %224 = fdiv double %217, %223
  %225 = call i32 (i8*, ...) @printf(i8* getelementptr inbounds ([29 x i8], [29 x i8]* @.str.5, i64 0, i64 0), double %184, double %198, double %210, double %224)
  br label %226

226:                                              ; preds = %172, %166
  br label %227

227:                                              ; preds = %226
  %228 = load i32, i32* %2, align 4
  %229 = add nsw i32 %228, 1
  store i32 %229, i32* %2, align 4
  br label %31

230:                                              ; preds = %31
  ret i32 0
}

declare dso_local i32 @__isoc99_scanf(i8*, ...) #1

declare dso_local i32 @printf(i8*, ...) #1

; Function Attrs: nounwind
declare dso_local double @sqrt(double) #2


!llvm.module.flags = !{!0}
!llvm.ident = !{!1}

!0 = !{i32 1, !"wchar_size", i32 4}
!1 = !{!"clang version 10.0.0-4ubuntu1 "}
